target datalayout = "e-m:e-p270:32:32-p271:32:32-p272:64:64-i64:64-i128:128-f80:128-n8:16:32:64-S128"
target triple = "x86_64-pc-linux-gnu"

%struct.IDAMemRec = type { ptr, double, ptr, ptr, i32, double, double, ptr, i32, i32, ptr, ptr, i32, i32, i32, ptr, ptr, i32, i32, double, double, ptr, i32, i32, i32, i32, ptr, ptr, i32, ptr, ptr, ptr, i32, double, i32, i32, double, ptr, ptr, ptr, i32, ptr, ptr, i32, i32, i32, double, ptr, ptr, ptr, [6 x ptr], [6 x double], [6 x double], [6 x double], [6 x double], [6 x double], ptr, ptr, ptr, ptr, ptr, ptr, ptr, ptr, ptr, ptr, ptr, ptr, ptr, ptr, ptr, ptr, ptr, [6 x ptr], ptr, ptr, ptr, ptr, [6 x ptr], ptr, ptr, ptr, ptr, ptr, ptr, ptr, ptr, ptr, ptr, ptr, ptr, ptr, ptr, ptr, ptr, [6 x ptr], ptr, ptr, ptr, ptr, ptr, double, ptr, ptr, i32, i32, i32, i32, i32, i32, i32, i32, double, double, double, i32, double, i32, i32, i32, i32, i32, double, double, double, double, double, double, double, double, double, double, double, double, double, double, double, double, double, i32, i32, i32, i32, i64, double, double, double, double, double, double, double, double, double, i64, i64, i64, i64, i64, i64, i64, i64, i64, i64, i64, i64, i64, i64, i64, i64, i64, i64, i64, i64, i64, i64, i64, i64, i64, i64, double, i32, i32, i32, i32, i32, i32, i32, i32, i32, i32, i32, i32, i32, ptr, i32, ptr, i32, ptr, i32, ptr, ptr, ptr, ptr, ptr, ptr, i32, i32, ptr, ptr, ptr, ptr, ptr, ptr, ptr, double, i32, i32, ptr, i32, ptr, ptr, double, double, double, ptr, ptr, ptr, double, double, i32, i32, i64, ptr, i32, ptr, [5 x double], ptr, ptr, i32, ptr, i32 }

@.str = private unnamed_addr constant [111 x i8] c"generated/home/dtcxzyw/WorkSpace/Projects/compilers/llvm-opt-benchmark/bench/sundials/sundials/src/idas/idas.c\00", align 1
@.str.3 = private unnamed_addr constant [24 x i8] c"ida_mem = NULL illegal.\00", align 1
@.str.20 = private unnamed_addr constant [52 x i8] c"Illegal attempt to call before calling IDASensInit.\00", align 1
@.str.26 = private unnamed_addr constant [73 x i8] c"Forward sensitivity analysis for quadrature variables was not activated.\00", align 1
@.str.49 = private unnamed_addr constant [20 x i8] c"dky = NULL illegal.\00", align 1
@__func__.IDAGetQuadSens1 = private unnamed_addr constant [16 x i8] c"IDAGetQuadSens1\00", align 1

; Function Attrs: nounwind uwtable
define i32 @IDAGetQuadSens1(ptr noundef %0, ptr noundef %1, i32 noundef %2, ptr noundef %3) #0 {
  %5 = alloca i32, align 4
  %6 = alloca ptr, align 8
  %7 = alloca ptr, align 8
  %8 = alloca i32, align 4
  %9 = alloca ptr, align 8
  %10 = alloca ptr, align 8
  %11 = alloca i32, align 4
  %12 = alloca i32, align 4
  store ptr %0, ptr %6, align 8, !tbaa !126
  store ptr %1, ptr %7, align 8, !tbaa !223
  store i32 %2, ptr %8, align 4, !tbaa !114
  store ptr %3, ptr %9, align 8, !tbaa !124
  call void @llvm.lifetime.start.p0(i64 8, ptr %10) #10
  call void @llvm.lifetime.start.p0(i64 4, ptr %11) #10
  %13 = load ptr, ptr %6, align 8, !tbaa !126
  %14 = icmp eq ptr %13, null
  br i1 %14, label %15, label %16

15:                                               ; preds = %4
  call void (ptr, i32, i32, ptr, ptr, ptr, ...) @IDAProcessError(ptr noundef null, i32 noundef -20, i32 noundef 3754, ptr noundef @__func__.IDAGetQuadSens1, ptr noundef @.str, ptr noundef @.str.3)
  store i32 -20, ptr %5, align 4
  store i32 1, ptr %12, align 4
  br label %48

16:                                               ; preds = %4
  %17 = load ptr, ptr %6, align 8, !tbaa !126
  store ptr %17, ptr %10, align 8, !tbaa !8
  %18 = load ptr, ptr %10, align 8, !tbaa !8
  %19 = getelementptr inbounds nuw %struct.IDAMemRec, ptr %18, i32 0, i32 23
  %20 = load i32, ptr %19, align 4, !tbaa !63
  %21 = icmp eq i32 %20, 0
  br i1 %21, label %22, label %24

22:                                               ; preds = %16
  %23 = load ptr, ptr %10, align 8, !tbaa !8
  call void (ptr, i32, i32, ptr, ptr, ptr, ...) @IDAProcessError(ptr noundef %23, i32 noundef -40, i32 noundef 3763, ptr noundef @__func__.IDAGetQuadSens1, ptr noundef @.str, ptr noundef @.str.20)
  store i32 -40, ptr %5, align 4
  store i32 1, ptr %12, align 4
  br label %48

24:                                               ; preds = %16
  %25 = load ptr, ptr %10, align 8, !tbaa !8
  %26 = getelementptr inbounds nuw %struct.IDAMemRec, ptr %25, i32 0, i32 40
  %27 = load i32, ptr %26, align 8, !tbaa !76
  %28 = icmp eq i32 %27, 0
  br i1 %28, label %29, label %31

29:                                               ; preds = %24
  %30 = load ptr, ptr %10, align 8, !tbaa !8
  call void (ptr, i32, i32, ptr, ptr, ptr, ...) @IDAProcessError(ptr noundef %30, i32 noundef -50, i32 noundef 3771, ptr noundef @__func__.IDAGetQuadSens1, ptr noundef @.str, ptr noundef @.str.26)
  store i32 -50, ptr %5, align 4
  store i32 1, ptr %12, align 4
  br label %48

31:                                               ; preds = %24
  %32 = load ptr, ptr %9, align 8, !tbaa !124
  %33 = icmp eq ptr %32, null
  br i1 %33, label %34, label %36

34:                                               ; preds = %31
  %35 = load ptr, ptr %10, align 8, !tbaa !8
  call void (ptr, i32, i32, ptr, ptr, ptr, ...) @IDAProcessError(ptr noundef %35, i32 noundef -27, i32 noundef 3779, ptr noundef @__func__.IDAGetQuadSens1, ptr noundef @.str, ptr noundef @.str.49)
  store i32 -27, ptr %5, align 4
  store i32 1, ptr %12, align 4
  br label %48

36:                                               ; preds = %31
  %37 = load ptr, ptr %10, align 8, !tbaa !8
  %38 = getelementptr inbounds nuw %struct.IDAMemRec, ptr %37, i32 0, i32 128
  %39 = load double, ptr %38, align 8, !tbaa !247
  %40 = load ptr, ptr %7, align 8, !tbaa !223
  store double %39, ptr %40, align 8, !tbaa !123
  %41 = load ptr, ptr %6, align 8, !tbaa !126
  %42 = load ptr, ptr %7, align 8, !tbaa !223
  %43 = load double, ptr %42, align 8, !tbaa !123
  %44 = load i32, ptr %8, align 4, !tbaa !114
  %45 = load ptr, ptr %9, align 8, !tbaa !124
  %46 = call i32 @IDAGetQuadSensDky1(ptr noundef %41, double noundef %43, i32 noundef 0, i32 noundef %44, ptr noundef %45)
  store i32 %46, ptr %11, align 4, !tbaa !114
  %47 = load i32, ptr %11, align 4, !tbaa !114
  store i32 %47, ptr %5, align 4
  store i32 1, ptr %12, align 4
  br label %48

48:                                               ; preds = %36, %34, %29, %22, %15
  call void @llvm.lifetime.end.p0(i64 4, ptr %11) #10
  call void @llvm.lifetime.end.p0(i64 8, ptr %10) #10
  %49 = load i32, ptr %5, align 4
  ret i32 %49
}