; Function Attrs: nounwind uwtable
define range(i32 -50, 1) i32 @IDAGetQuadSens1(ptr noundef captures(address_is_null) %0, ptr noundef writeonly captures(none) %1, i32 noundef %2, ptr noundef %3) local_unnamed_addr #0 {
  %5 = icmp eq ptr %0, null
  br i1 %5, label %6, label %7

6:                                                ; preds = %4
  tail call void (ptr, i32, i32, ptr, ptr, ptr, ...) @IDAProcessError(ptr noundef null, i32 noundef -20, i32 noundef 3754, ptr noundef nonnull @__func__.IDAGetQuadSens1, ptr noundef nonnull @.str, ptr noundef nonnull @.str.3)
  br label %24

7:                                                ; preds = %4
  %8 = getelementptr inbounds nuw i8, ptr %0, i64 156
  %9 = load i32, ptr %8, align 4, !tbaa !45
  %10 = icmp eq i32 %9, 0
  br i1 %10, label %11, label %12

11:                                               ; preds = %7
  tail call void (ptr, i32, i32, ptr, ptr, ptr, ...) @IDAProcessError(ptr noundef nonnull %0, i32 noundef -40, i32 noundef 3763, ptr noundef nonnull @__func__.IDAGetQuadSens1, ptr noundef nonnull @.str, ptr noundef nonnull @.str.20)
  br label %24

12:                                               ; preds = %7
  %13 = getelementptr inbounds nuw i8, ptr %0, i64 272
  %14 = load i32, ptr %13, align 8, !tbaa !55
  %15 = icmp eq i32 %14, 0
  br i1 %15, label %16, label %17

16:                                               ; preds = %12
  tail call void (ptr, i32, i32, ptr, ptr, ptr, ...) @IDAProcessError(ptr noundef nonnull %0, i32 noundef -50, i32 noundef 3771, ptr noundef nonnull @__func__.IDAGetQuadSens1, ptr noundef nonnull @.str, ptr noundef nonnull @.str.26)
  br label %24

17:                                               ; preds = %12
  %18 = icmp eq ptr %3, null
  br i1 %18, label %19, label %20

19:                                               ; preds = %17
  tail call void (ptr, i32, i32, ptr, ptr, ptr, ...) @IDAProcessError(ptr noundef nonnull %0, i32 noundef -27, i32 noundef 3779, ptr noundef nonnull @__func__.IDAGetQuadSens1, ptr noundef nonnull @.str, ptr noundef nonnull @.str.49)
  br label %24

20:                                               ; preds = %17
  %21 = getelementptr inbounds nuw i8, ptr %0, i64 1280
  %22 = load double, ptr %21, align 8, !tbaa !228
  store double %22, ptr %1, align 8, !tbaa !87
  %23 = tail call i32 @IDAGetQuadSensDky1(ptr noundef nonnull %0, double noundef %22, i32 noundef 0, i32 noundef %2, ptr noundef nonnull %3)
  br label %24

24:                                               ; preds = %20, %19, %16, %11, %6
  %.0 = phi i32 [ -20, %6 ], [ -40, %11 ], [ -50, %16 ], [ -27, %19 ], [ %23, %20 ]
  ret i32 %.0
}